target datalayout = "e-m:e-p270:32:32-p271:32:32-p272:64:64-i64:64-i128:128-f80:128-n8:16:32:64-S128"
target triple = "x86_64-pc-linux-gnu"

%struct.WaitEventSet = type { ptr, i32, i32, ptr, ptr, i32, i8, i32, ptr }
%struct.WaitEvent = type { i32, i32, i32, ptr }

@LatchWaitSet = internal global ptr null, align 8

; Function Attrs: nounwind uwtable
define dso_local i32 @WaitLatch(ptr noundef %0, i32 noundef %1, i64 noundef %2, i32 noundef %3) #0 {
  %5 = alloca i32, align 4
  %6 = alloca ptr, align 8
  %7 = alloca i32, align 4
  %8 = alloca i64, align 8
  %9 = alloca i32, align 4
  %10 = alloca %struct.WaitEvent, align 8
  %11 = alloca i32, align 4
  store ptr %0, ptr %6, align 8
  store i32 %1, ptr %7, align 4
  store i64 %2, ptr %8, align 8
  store i32 %3, ptr %9, align 4
  call void @llvm.lifetime.start.p0(i64 24, ptr %10) #9
  %12 = load i32, ptr %7, align 4
  %13 = and i32 %12, 1
  %14 = icmp ne i32 %13, 0
  br i1 %14, label %16, label %15

15:                                               ; preds = %4
  store ptr null, ptr %6, align 8
  br label %16

16:                                               ; preds = %15, %4
  %17 = load ptr, ptr @LatchWaitSet, align 8
  %18 = load ptr, ptr %6, align 8
  call void @ModifyWaitEvent(ptr noundef %17, i32 noundef 0, i32 noundef 1, ptr noundef %18)
  %19 = load i32, ptr %7, align 4
  %20 = and i32 %19, 32
  %21 = icmp ne i32 %20, 0
  %22 = load ptr, ptr @LatchWaitSet, align 8
  %23 = getelementptr inbounds nuw %struct.WaitEventSet, ptr %22, i32 0, i32 6
  %24 = zext i1 %21 to i8
  store i8 %24, ptr %23, align 4
  %25 = load ptr, ptr @LatchWaitSet, align 8
  %26 = load i32, ptr %7, align 4
  %27 = and i32 %26, 8
  %28 = icmp ne i32 %27, 0
  br i1 %28, label %29, label %31

29:                                               ; preds = %16
  %30 = load i64, ptr %8, align 8
  br label %32

31:                                               ; preds = %16
  br label %32

32:                                               ; preds = %31, %29
  %33 = phi i64 [ %30, %29 ], [ -1, %31 ]
  %34 = load i32, ptr %9, align 4
  %35 = call i32 @WaitEventSetWait(ptr noundef %25, i64 noundef %33, ptr noundef %10, i32 noundef 1, i32 noundef %34)
  %36 = icmp eq i32 %35, 0
  br i1 %36, label %37, label %38

37:                                               ; preds = %32
  store i32 8, ptr %5, align 4
  store i32 1, ptr %11, align 4
  br label %41

38:                                               ; preds = %32
  %39 = getelementptr inbounds nuw %struct.WaitEvent, ptr %10, i32 0, i32 1
  %40 = load i32, ptr %39, align 4
  store i32 %40, ptr %5, align 4
  store i32 1, ptr %11, align 4
  br label %41

41:                                               ; preds = %38, %37
  call void @llvm.lifetime.end.p0(i64 24, ptr %10) #9
  %42 = load i32, ptr %5, align 4
  ret i32 %42
}