; Function Attrs: nounwind uwtable
define dso_local i32 @WaitLatch(ptr noundef %0, i32 noundef %1, i64 noundef %2, i32 noundef %3) local_unnamed_addr #0 {
  %5 = alloca %struct.WaitEvent, align 8
  call void @llvm.lifetime.start.p0(i64 24, ptr nonnull %5) #14
  %6 = and i32 %1, 1
  %.not = icmp eq i32 %6, 0
  %spec.select = select i1 %.not, ptr null, ptr %0
  %7 = load ptr, ptr @LatchWaitSet, align 8
  tail call void @ModifyWaitEvent(ptr noundef %7, i32 noundef 0, i32 noundef 1, ptr noundef %spec.select)
  %8 = load ptr, ptr @LatchWaitSet, align 8
  %9 = getelementptr inbounds nuw i8, ptr %8, i64 36
  %10 = trunc i32 %1 to i8
  %11 = lshr i8 %10, 5
  %12 = and i8 %11, 1
  store i8 %12, ptr %9, align 4
  %13 = and i32 %1, 8
  %.not7 = icmp eq i32 %13, 0
  %14 = select i1 %.not7, i64 -1, i64 %2
  %15 = call i32 @WaitEventSetWait(ptr noundef %8, i64 noundef %14, ptr noundef nonnull %5, i32 noundef 1, i32 noundef %3)
  %16 = icmp eq i32 %15, 0
  %17 = getelementptr inbounds nuw i8, ptr %5, i64 4
  %18 = load i32, ptr %17, align 4
  %.0 = select i1 %16, i32 8, i32 %18
  call void @llvm.lifetime.end.p0(i64 24, ptr nonnull %5) #14
  ret i32 %.0
}